; Function Attrs: mustprogress uwtable
define hidden void @_ZN4cvc58internal10IntBlaster15createBVNegNodeENS0_12NodeTemplateILb1EEEj(ptr noalias sret(%"class.cvc5::internal::NodeTemplate") align 8 %agg.result, ptr nocapture noundef nonnull readonly align 8 dereferenceable(468) %this, ptr nocapture noundef readonly %n, i32 noundef %bvsize) local_unnamed_addr #3 align 2 personality ptr @__gxx_personality_v0 {
entry:
  %bvNotNode = alloca %"class.cvc5::internal::NodeTemplate", align 8
  %agg.tmp = alloca %"class.cvc5::internal::NodeTemplate", align 8
  %agg.tmp2 = alloca %"class.cvc5::internal::NodeTemplate", align 8
  %agg.tmp5 = alloca %"class.cvc5::internal::NodeTemplate", align 8
  %0 = load ptr, ptr %n, align 8
  store ptr %0, ptr %agg.tmp, align 8
  %bf.load.i.i = load i64, ptr %0, align 8
  %bf.lshr.i.i = lshr i64 %bf.load.i.i, 40
  %1 = trunc i64 %bf.lshr.i.i to i32
  %bf.cast.i.i = and i32 %1, 1048575
  %cmp.i.i = icmp ult i32 %bf.cast.i.i, 1048574
  br i1 %cmp.i.i, label %if.then.i.i, label %if.else.i.i

if.then.i.i:                                      ; preds = %entry
  %bf.value.i.i = add i64 %bf.load.i.i, 1099511627776
  %bf.shl.i.i = and i64 %bf.value.i.i, 1152920405095219200
  %bf.clear7.i.i = and i64 %bf.load.i.i, -1152920405095219201
  %bf.set.i.i = or disjoint i64 %bf.shl.i.i, %bf.clear7.i.i
  store i64 %bf.set.i.i, ptr %0, align 8
  br label %_ZN4cvc58internal12NodeTemplateILb1EEC2ERKS2_.exit

if.else.i.i:                                      ; preds = %entry
  %cmp12.i.i = icmp eq i32 %bf.cast.i.i, 1048574
  br i1 %cmp12.i.i, label %if.then13.i.i, label %_ZN4cvc58internal12NodeTemplateILb1EEC2ERKS2_.exit

if.then13.i.i:                                    ; preds = %if.else.i.i
  %bf.set23.i.i = or i64 %bf.load.i.i, 1152920405095219200
  store i64 %bf.set23.i.i, ptr %0, align 8
  tail call void @_ZN4cvc58internal4expr9NodeValue20markRefCountMaxedOutEv(ptr noundef nonnull align 8 dereferenceable(16) %0)
  br label %_ZN4cvc58internal12NodeTemplateILb1EEC2ERKS2_.exit

_ZN4cvc58internal12NodeTemplateILb1EEC2ERKS2_.exit: ; preds = %if.then.i.i, %if.else.i.i, %if.then13.i.i
  invoke void @_ZN4cvc58internal10IntBlaster15createBVNotNodeENS0_12NodeTemplateILb1EEEj(ptr nonnull sret(%"class.cvc5::internal::NodeTemplate") align 8 %bvNotNode, ptr noundef nonnull align 8 dereferenceable(468) %this, ptr noundef nonnull %agg.tmp, i32 noundef %bvsize)
          to label %invoke.cont unwind label %lpad

invoke.cont:                                      ; preds = %_ZN4cvc58internal12NodeTemplateILb1EEC2ERKS2_.exit
  %bf.load.i.i5 = load i64, ptr %0, align 8
  %2 = and i64 %bf.load.i.i5, 1152920405095219200
  %cmp.not.i.i = icmp eq i64 %2, 1152920405095219200
  br i1 %cmp.not.i.i, label %_ZN4cvc58internal12NodeTemplateILb1EED2Ev.exit, label %if.then.i.i6

if.then.i.i6:                                     ; preds = %invoke.cont
  %bf.value.i.i7 = add i64 %bf.load.i.i5, 1152920405095219200
  %bf.shl.i.i8 = and i64 %bf.value.i.i7, 1152920405095219200
  %bf.clear7.i.i9 = and i64 %bf.load.i.i5, -1152920405095219201
  %bf.set.i.i10 = or disjoint i64 %bf.shl.i.i8, %bf.clear7.i.i9
  store i64 %bf.set.i.i10, ptr %0, align 8
  %cmp12.i.i11 = icmp eq i64 %bf.shl.i.i8, 0
  br i1 %cmp12.i.i11, label %if.then13.i.i12, label %_ZN4cvc58internal12NodeTemplateILb1EED2Ev.exit

if.then13.i.i12:                                  ; preds = %if.then.i.i6
  invoke void @_ZN4cvc58internal4expr9NodeValue15markForDeletionEv(ptr noundef nonnull align 8 dereferenceable(16) %0)
          to label %_ZN4cvc58internal12NodeTemplateILb1EED2Ev.exit unwind label %terminate.lpad.i

terminate.lpad.i:                                 ; preds = %if.then13.i.i12
  %3 = landingpad { ptr, i32 }
          catch ptr null
  %4 = extractvalue { ptr, i32 } %3, 0
  call void @__clang_call_terminate(ptr %4) #22
  unreachable

_ZN4cvc58internal12NodeTemplateILb1EED2Ev.exit:   ; preds = %invoke.cont, %if.then.i.i6, %if.then13.i.i12
  %5 = load ptr, ptr %bvNotNode, align 8
  store ptr %5, ptr %agg.tmp2, align 8
  %bf.load.i.i13 = load i64, ptr %5, align 8
  %bf.lshr.i.i14 = lshr i64 %bf.load.i.i13, 40
  %6 = trunc i64 %bf.lshr.i.i14 to i32
  %bf.cast.i.i15 = and i32 %6, 1048575
  %cmp.i.i16 = icmp ult i32 %bf.cast.i.i15, 1048574
  br i1 %cmp.i.i16, label %if.then.i.i21, label %if.else.i.i17

if.then.i.i21:                                    ; preds = %_ZN4cvc58internal12NodeTemplateILb1EED2Ev.exit
  %bf.value.i.i22 = add i64 %bf.load.i.i13, 1099511627776
  %bf.shl.i.i23 = and i64 %bf.value.i.i22, 1152920405095219200
  %bf.clear7.i.i24 = and i64 %bf.load.i.i13, -1152920405095219201
  %bf.set.i.i25 = or disjoint i64 %bf.shl.i.i23, %bf.clear7.i.i24
  store i64 %bf.set.i.i25, ptr %5, align 8
  br label %invoke.cont4

if.else.i.i17:                                    ; preds = %_ZN4cvc58internal12NodeTemplateILb1EED2Ev.exit
  %cmp12.i.i18 = icmp eq i32 %bf.cast.i.i15, 1048574
  br i1 %cmp12.i.i18, label %if.then13.i.i19, label %invoke.cont4

if.then13.i.i19:                                  ; preds = %if.else.i.i17
  %bf.set23.i.i20 = or i64 %bf.load.i.i13, 1152920405095219200
  store i64 %bf.set23.i.i20, ptr %5, align 8
  invoke void @_ZN4cvc58internal4expr9NodeValue20markRefCountMaxedOutEv(ptr noundef nonnull align 8 dereferenceable(16) %5)
          to label %invoke.cont4 unwind label %lpad3

invoke.cont4:                                     ; preds = %if.else.i.i17, %if.then.i.i21, %if.then13.i.i19
  %d_one = getelementptr inbounds i8, ptr %this, i64 368
  %7 = load ptr, ptr %d_one, align 8
  store ptr %7, ptr %agg.tmp5, align 8
  %bf.load.i.i27 = load i64, ptr %7, align 8
  %bf.lshr.i.i28 = lshr i64 %bf.load.i.i27, 40
  %8 = trunc i64 %bf.lshr.i.i28 to i32
  %bf.cast.i.i29 = and i32 %8, 1048575
  %cmp.i.i30 = icmp ult i32 %bf.cast.i.i29, 1048574
  br i1 %cmp.i.i30, label %if.then.i.i35, label %if.else.i.i31

if.then.i.i35:                                    ; preds = %invoke.cont4
  %bf.value.i.i36 = add i64 %bf.load.i.i27, 1099511627776
  %bf.shl.i.i37 = and i64 %bf.value.i.i36, 1152920405095219200
  %bf.clear7.i.i38 = and i64 %bf.load.i.i27, -1152920405095219201
  %bf.set.i.i39 = or disjoint i64 %bf.shl.i.i37, %bf.clear7.i.i38
  store i64 %bf.set.i.i39, ptr %7, align 8
  br label %invoke.cont7

if.else.i.i31:                                    ; preds = %invoke.cont4
  %cmp12.i.i32 = icmp eq i32 %bf.cast.i.i29, 1048574
  br i1 %cmp12.i.i32, label %if.then13.i.i33, label %invoke.cont7

if.then13.i.i33:                                  ; preds = %if.else.i.i31
  %bf.set23.i.i34 = or i64 %bf.load.i.i27, 1152920405095219200
  store i64 %bf.set23.i.i34, ptr %7, align 8
  invoke void @_ZN4cvc58internal4expr9NodeValue20markRefCountMaxedOutEv(ptr noundef nonnull align 8 dereferenceable(16) %7)
          to label %invoke.cont7 unwind label %lpad6

invoke.cont7:                                     ; preds = %if.else.i.i31, %if.then.i.i35, %if.then13.i.i33
  invoke void @_ZN4cvc58internal10IntBlaster15createBVAddNodeENS0_12NodeTemplateILb1EEES3_j(ptr sret(%"class.cvc5::internal::NodeTemplate") align 8 %agg.result, ptr noundef nonnull align 8 dereferenceable(468) %this, ptr noundef nonnull %agg.tmp2, ptr noundef nonnull %agg.tmp5, i32 noundef %bvsize)
          to label %invoke.cont9 unwind label %lpad8

invoke.cont9:                                     ; preds = %invoke.cont7
  %bf.load.i.i42 = load i64, ptr %7, align 8
  %9 = and i64 %bf.load.i.i42, 1152920405095219200
  %cmp.not.i.i43 = icmp eq i64 %9, 1152920405095219200
  br i1 %cmp.not.i.i43, label %_ZN4cvc58internal12NodeTemplateILb1EED2Ev.exit52, label %if.then.i.i44

if.then.i.i44:                                    ; preds = %invoke.cont9
  %bf.value.i.i45 = add i64 %bf.load.i.i42, 1152920405095219200
  %bf.shl.i.i46 = and i64 %bf.value.i.i45, 1152920405095219200
  %bf.clear7.i.i47 = and i64 %bf.load.i.i42, -1152920405095219201
  %bf.set.i.i48 = or disjoint i64 %bf.shl.i.i46, %bf.clear7.i.i47
  store i64 %bf.set.i.i48, ptr %7, align 8
  %cmp12.i.i49 = icmp eq i64 %bf.shl.i.i46, 0
  br i1 %cmp12.i.i49, label %if.then13.i.i50, label %_ZN4cvc58internal12NodeTemplateILb1EED2Ev.exit52

if.then13.i.i50:                                  ; preds = %if.then.i.i44
  invoke void @_ZN4cvc58internal4expr9NodeValue15markForDeletionEv(ptr noundef nonnull align 8 dereferenceable(16) %7)
          to label %_ZN4cvc58internal12NodeTemplateILb1EED2Ev.exit52 unwind label %terminate.lpad.i51

terminate.lpad.i51:                               ; preds = %if.then13.i.i50
  %10 = landingpad { ptr, i32 }
          catch ptr null
  %11 = extractvalue { ptr, i32 } %10, 0
  call void @__clang_call_terminate(ptr %11) #22
  unreachable

_ZN4cvc58internal12NodeTemplateILb1EED2Ev.exit52: ; preds = %invoke.cont9, %if.then.i.i44, %if.then13.i.i50
  %bf.load.i.i53 = load i64, ptr %5, align 8
  %12 = and i64 %bf.load.i.i53, 1152920405095219200
  %cmp.not.i.i54 = icmp eq i64 %12, 1152920405095219200
  br i1 %cmp.not.i.i54, label %_ZN4cvc58internal12NodeTemplateILb1EED2Ev.exit63, label %if.then.i.i55

if.then.i.i55:                                    ; preds = %_ZN4cvc58internal12NodeTemplateILb1EED2Ev.exit52
  %bf.value.i.i56 = add i64 %bf.load.i.i53, 1152920405095219200
  %bf.shl.i.i57 = and i64 %bf.value.i.i56, 1152920405095219200
  %bf.clear7.i.i58 = and i64 %bf.load.i.i53, -1152920405095219201
  %bf.set.i.i59 = or disjoint i64 %bf.shl.i.i57, %bf.clear7.i.i58
  store i64 %bf.set.i.i59, ptr %5, align 8
  %cmp12.i.i60 = icmp eq i64 %bf.shl.i.i57, 0
  br i1 %cmp12.i.i60, label %if.then13.i.i61, label %_ZN4cvc58internal12NodeTemplateILb1EED2Ev.exit63

if.then13.i.i61:                                  ; preds = %if.then.i.i55
  invoke void @_ZN4cvc58internal4expr9NodeValue15markForDeletionEv(ptr noundef nonnull align 8 dereferenceable(16) %5)
          to label %_ZN4cvc58internal12NodeTemplateILb1EED2Ev.exit63 unwind label %terminate.lpad.i62

terminate.lpad.i62:                               ; preds = %if.then13.i.i61
  %13 = landingpad { ptr, i32 }
          catch ptr null
  %14 = extractvalue { ptr, i32 } %13, 0
  call void @__clang_call_terminate(ptr %14) #22
  unreachable

_ZN4cvc58internal12NodeTemplateILb1EED2Ev.exit63: ; preds = %_ZN4cvc58internal12NodeTemplateILb1EED2Ev.exit52, %if.then.i.i55, %if.then13.i.i61
  %15 = load ptr, ptr %bvNotNode, align 8
  %bf.load.i.i64 = load i64, ptr %15, align 8
  %16 = and i64 %bf.load.i.i64, 1152920405095219200
  %cmp.not.i.i65 = icmp eq i64 %16, 1152920405095219200
  br i1 %cmp.not.i.i65, label %_ZN4cvc58internal12NodeTemplateILb1EED2Ev.exit74, label %if.then.i.i66

if.then.i.i66:                                    ; preds = %_ZN4cvc58internal12NodeTemplateILb1EED2Ev.exit63
  %bf.value.i.i67 = add i64 %bf.load.i.i64, 1152920405095219200
  %bf.shl.i.i68 = and i64 %bf.value.i.i67, 1152920405095219200
  %bf.clear7.i.i69 = and i64 %bf.load.i.i64, -1152920405095219201
  %bf.set.i.i70 = or disjoint i64 %bf.shl.i.i68, %bf.clear7.i.i69
  store i64 %bf.set.i.i70, ptr %15, align 8
  %cmp12.i.i71 = icmp eq i64 %bf.shl.i.i68, 0
  br i1 %cmp12.i.i71, label %if.then13.i.i72, label %_ZN4cvc58internal12NodeTemplateILb1EED2Ev.exit74

if.then13.i.i72:                                  ; preds = %if.then.i.i66
  invoke void @_ZN4cvc58internal4expr9NodeValue15markForDeletionEv(ptr noundef nonnull align 8 dereferenceable(16) %15)
          to label %_ZN4cvc58internal12NodeTemplateILb1EED2Ev.exit74 unwind label %terminate.lpad.i73

terminate.lpad.i73:                               ; preds = %if.then13.i.i72
  %17 = landingpad { ptr, i32 }
          catch ptr null
  %18 = extractvalue { ptr, i32 } %17, 0
  call void @__clang_call_terminate(ptr %18) #22
  unreachable

_ZN4cvc58internal12NodeTemplateILb1EED2Ev.exit74: ; preds = %_ZN4cvc58internal12NodeTemplateILb1EED2Ev.exit63, %if.then.i.i66, %if.then13.i.i72
  ret void

lpad:                                             ; preds = %_ZN4cvc58internal12NodeTemplateILb1EEC2ERKS2_.exit
  %19 = landingpad { ptr, i32 }
          cleanup
  br label %eh.resume

lpad3:                                            ; preds = %if.then13.i.i19
  %20 = landingpad { ptr, i32 }
          cleanup
  br label %eh.resume

lpad6:                                            ; preds = %if.then13.i.i33
  %21 = landingpad { ptr, i32 }
          cleanup
  br label %ehcleanup

lpad8:                                            ; preds = %invoke.cont7
  %22 = landingpad { ptr, i32 }
          cleanup
  call void @_ZN4cvc58internal12NodeTemplateILb1EED2Ev(ptr noundef nonnull align 8 dereferenceable(8) %agg.tmp5) #21
  br label %ehcleanup

ehcleanup:                                        ; preds = %lpad8, %lpad6
  %.pn = phi { ptr, i32 } [ %22, %lpad8 ], [ %21, %lpad6 ]
  call void @_ZN4cvc58internal12NodeTemplateILb1EED2Ev(ptr noundef nonnull align 8 dereferenceable(8) %agg.tmp2) #21
  br label %eh.resume

eh.resume:                                        ; preds = %lpad3, %ehcleanup, %lpad
  %bvNotNode.sink = phi ptr [ %agg.tmp, %lpad ], [ %bvNotNode, %ehcleanup ], [ %bvNotNode, %lpad3 ]
  %.pn.pn.pn = phi { ptr, i32 } [ %19, %lpad ], [ %.pn, %ehcleanup ], [ %20, %lpad3 ]
  call void @_ZN4cvc58internal12NodeTemplateILb1EED2Ev(ptr noundef nonnull align 8 dereferenceable(8) %bvNotNode.sink) #21
  resume { ptr, i32 } %.pn.pn.pn
}